target datalayout = "e-m:e-p270:32:32-p271:32:32-p272:64:64-i64:64-i128:128-f80:128-n8:16:32:64-S128"
target triple = "x86_64-pc-linux-gnu"

%struct.jpeg_decompress_struct = type { ptr, ptr, ptr, ptr, i32, i32, ptr, i32, i32, i32, i32, i32, i32, i32, double, i32, i32, i32, i32, i32, i32, i32, i32, i32, i32, i32, i32, i32, i32, i32, i32, i32, i32, ptr, i32, i32, i32, i32, i32, ptr, [4 x ptr], [4 x ptr], [4 x ptr], i32, ptr, i32, i32, [16 x i8], [16 x i8], [16 x i8], i32, i32, i8, i8, i8, i16, i16, i32, i8, i32, ptr, i32, i32, i32, i32, ptr, i32, [4 x ptr], i32, i32, i32, [10 x i32], i32, i32, i32, i32, i32, ptr, ptr, ptr, ptr, ptr, ptr, ptr, ptr, ptr, ptr, ptr }
%struct.jpeg_error_mgr = type { ptr, ptr, ptr, ptr, ptr, i32, %union.anon, i32, i64, ptr, i32, ptr, i32, i32 }
%union.anon = type { [8 x i32], [48 x i8] }
%struct.jpeg_entropy_decoder = type { ptr, ptr, ptr, ptr, i32 }
%struct.huff_entropy_decoder = type { %struct.jpeg_entropy_decoder, %struct.bitread_perm_state, %struct.savable_state, i32, [4 x ptr], [4 x ptr], [10 x ptr], [10 x ptr], [10 x i32], [10 x i32] }
%struct.bitread_perm_state = type { i64, i32 }
%struct.savable_state = type { [4 x i32] }
%struct.jpeg_component_info = type { i32, i32, i32, i32, i32, i32, i32, i32, i32, i32, i32, i32, i32, i32, i32, i32, i32, i32, i32, ptr, ptr }

; Function Attrs: nounwind uwtable
define internal void @start_pass_huff_decoder(ptr noundef %0) #0 {
  %2 = alloca ptr, align 8
  %3 = alloca ptr, align 8
  %4 = alloca i32, align 4
  %5 = alloca i32, align 4
  %6 = alloca i32, align 4
  %7 = alloca i32, align 4
  %8 = alloca ptr, align 8
  %9 = alloca ptr, align 8
  store ptr %0, ptr %2, align 8
  %10 = load ptr, ptr %2, align 8
  %11 = getelementptr inbounds %struct.jpeg_decompress_struct, ptr %10, i32 0, i32 83
  %12 = load ptr, ptr %11, align 8
  store ptr %12, ptr %3, align 8
  %13 = load ptr, ptr %2, align 8
  %14 = getelementptr inbounds %struct.jpeg_decompress_struct, ptr %13, i32 0, i32 72
  %15 = load i32, ptr %14, align 4
  %16 = icmp ne i32 %15, 0
  br i1 %16, label %32, label %17

17:                                               ; preds = %1
  %18 = load ptr, ptr %2, align 8
  %19 = getelementptr inbounds %struct.jpeg_decompress_struct, ptr %18, i32 0, i32 73
  %20 = load i32, ptr %19, align 8
  %21 = icmp ne i32 %20, 63
  br i1 %21, label %32, label %22

22:                                               ; preds = %17
  %23 = load ptr, ptr %2, align 8
  %24 = getelementptr inbounds %struct.jpeg_decompress_struct, ptr %23, i32 0, i32 74
  %25 = load i32, ptr %24, align 4
  %26 = icmp ne i32 %25, 0
  br i1 %26, label %32, label %27

27:                                               ; preds = %22
  %28 = load ptr, ptr %2, align 8
  %29 = getelementptr inbounds %struct.jpeg_decompress_struct, ptr %28, i32 0, i32 75
  %30 = load i32, ptr %29, align 8
  %31 = icmp ne i32 %30, 0
  br i1 %31, label %32, label %43

32:                                               ; preds = %27, %22, %17, %1
  %33 = load ptr, ptr %2, align 8
  %34 = getelementptr inbounds %struct.jpeg_decompress_struct, ptr %33, i32 0, i32 0
  %35 = load ptr, ptr %34, align 8
  %36 = getelementptr inbounds %struct.jpeg_error_mgr, ptr %35, i32 0, i32 5
  store i32 122, ptr %36, align 8
  %37 = load ptr, ptr %2, align 8
  %38 = getelementptr inbounds %struct.jpeg_decompress_struct, ptr %37, i32 0, i32 0
  %39 = load ptr, ptr %38, align 8
  %40 = getelementptr inbounds %struct.jpeg_error_mgr, ptr %39, i32 0, i32 1
  %41 = load ptr, ptr %40, align 8
  %42 = load ptr, ptr %2, align 8
  call void %41(ptr noundef %42, i32 noundef -1)
  br label %43

43:                                               ; preds = %32, %27
  store i32 0, ptr %4, align 4
  br label %44

44:                                               ; preds = %87, %43
  %45 = load i32, ptr %4, align 4
  %46 = load ptr, ptr %2, align 8
  %47 = getelementptr inbounds %struct.jpeg_decompress_struct, ptr %46, i32 0, i32 66
  %48 = load i32, ptr %47, align 8
  %49 = icmp slt i32 %45, %48
  br i1 %49, label %50, label %90

50:                                               ; preds = %44
  %51 = load ptr, ptr %2, align 8
  %52 = getelementptr inbounds %struct.jpeg_decompress_struct, ptr %51, i32 0, i32 67
  %53 = load i32, ptr %4, align 4
  %54 = sext i32 %53 to i64
  %55 = getelementptr inbounds [4 x ptr], ptr %52, i64 0, i64 %54
  %56 = load ptr, ptr %55, align 8
  store ptr %56, ptr %9, align 8
  %57 = load ptr, ptr %9, align 8
  %58 = getelementptr inbounds %struct.jpeg_component_info, ptr %57, i32 0, i32 5
  %59 = load i32, ptr %58, align 4
  store i32 %59, ptr %6, align 4
  %60 = load ptr, ptr %9, align 8
  %61 = getelementptr inbounds %struct.jpeg_component_info, ptr %60, i32 0, i32 6
  %62 = load i32, ptr %61, align 8
  store i32 %62, ptr %7, align 4
  %63 = load ptr, ptr %3, align 8
  %64 = getelementptr inbounds %struct.huff_entropy_decoder, ptr %63, i32 0, i32 4
  %65 = getelementptr inbounds [4 x ptr], ptr %64, i64 0, i64 0
  %66 = load i32, ptr %6, align 4
  %67 = sext i32 %66 to i64
  %68 = getelementptr inbounds ptr, ptr %65, i64 %67
  store ptr %68, ptr %8, align 8
  %69 = load ptr, ptr %2, align 8
  %70 = load i32, ptr %6, align 4
  %71 = load ptr, ptr %8, align 8
  call void @jpeg_make_d_derived_tbl(ptr noundef %69, i32 noundef 1, i32 noundef %70, ptr noundef %71)
  %72 = load ptr, ptr %3, align 8
  %73 = getelementptr inbounds %struct.huff_entropy_decoder, ptr %72, i32 0, i32 5
  %74 = getelementptr inbounds [4 x ptr], ptr %73, i64 0, i64 0
  %75 = load i32, ptr %7, align 4
  %76 = sext i32 %75 to i64
  %77 = getelementptr inbounds ptr, ptr %74, i64 %76
  store ptr %77, ptr %8, align 8
  %78 = load ptr, ptr %2, align 8
  %79 = load i32, ptr %7, align 4
  %80 = load ptr, ptr %8, align 8
  call void @jpeg_make_d_derived_tbl(ptr noundef %78, i32 noundef 0, i32 noundef %79, ptr noundef %80)
  %81 = load ptr, ptr %3, align 8
  %82 = getelementptr inbounds %struct.huff_entropy_decoder, ptr %81, i32 0, i32 2
  %83 = getelementptr inbounds %struct.savable_state, ptr %82, i32 0, i32 0
  %84 = load i32, ptr %4, align 4
  %85 = sext i32 %84 to i64
  %86 = getelementptr inbounds [4 x i32], ptr %83, i64 0, i64 %85
  store i32 0, ptr %86, align 4
  br label %87

87:                                               ; preds = %50
  %88 = load i32, ptr %4, align 4
  %89 = add nsw i32 %88, 1
  store i32 %89, ptr %4, align 4
  br label %44, !llvm.loop !19

90:                                               ; preds = %44
  store i32 0, ptr %5, align 4
  br label %91

91:                                               ; preds = %168, %90
  %92 = load i32, ptr %5, align 4
  %93 = load ptr, ptr %2, align 8
  %94 = getelementptr inbounds %struct.jpeg_decompress_struct, ptr %93, i32 0, i32 70
  %95 = load i32, ptr %94, align 8
  %96 = icmp slt i32 %92, %95
  br i1 %96, label %97, label %171

97:                                               ; preds = %91
  %98 = load ptr, ptr %2, align 8
  %99 = getelementptr inbounds %struct.jpeg_decompress_struct, ptr %98, i32 0, i32 71
  %100 = load i32, ptr %5, align 4
  %101 = sext i32 %100 to i64
  %102 = getelementptr inbounds [10 x i32], ptr %99, i64 0, i64 %101
  %103 = load i32, ptr %102, align 4
  store i32 %103, ptr %4, align 4
  %104 = load ptr, ptr %2, align 8
  %105 = getelementptr inbounds %struct.jpeg_decompress_struct, ptr %104, i32 0, i32 67
  %106 = load i32, ptr %4, align 4
  %107 = sext i32 %106 to i64
  %108 = getelementptr inbounds [4 x ptr], ptr %105, i64 0, i64 %107
  %109 = load ptr, ptr %108, align 8
  store ptr %109, ptr %9, align 8
  %110 = load ptr, ptr %3, align 8
  %111 = getelementptr inbounds %struct.huff_entropy_decoder, ptr %110, i32 0, i32 4
  %112 = load ptr, ptr %9, align 8
  %113 = getelementptr inbounds %struct.jpeg_component_info, ptr %112, i32 0, i32 5
  %114 = load i32, ptr %113, align 4
  %115 = sext i32 %114 to i64
  %116 = getelementptr inbounds [4 x ptr], ptr %111, i64 0, i64 %115
  %117 = load ptr, ptr %116, align 8
  %118 = load ptr, ptr %3, align 8
  %119 = getelementptr inbounds %struct.huff_entropy_decoder, ptr %118, i32 0, i32 6
  %120 = load i32, ptr %5, align 4
  %121 = sext i32 %120 to i64
  %122 = getelementptr inbounds [10 x ptr], ptr %119, i64 0, i64 %121
  store ptr %117, ptr %122, align 8
  %123 = load ptr, ptr %3, align 8
  %124 = getelementptr inbounds %struct.huff_entropy_decoder, ptr %123, i32 0, i32 5
  %125 = load ptr, ptr %9, align 8
  %126 = getelementptr inbounds %struct.jpeg_component_info, ptr %125, i32 0, i32 6
  %127 = load i32, ptr %126, align 8
  %128 = sext i32 %127 to i64
  %129 = getelementptr inbounds [4 x ptr], ptr %124, i64 0, i64 %128
  %130 = load ptr, ptr %129, align 8
  %131 = load ptr, ptr %3, align 8
  %132 = getelementptr inbounds %struct.huff_entropy_decoder, ptr %131, i32 0, i32 7
  %133 = load i32, ptr %5, align 4
  %134 = sext i32 %133 to i64
  %135 = getelementptr inbounds [10 x ptr], ptr %132, i64 0, i64 %134
  store ptr %130, ptr %135, align 8
  %136 = load ptr, ptr %9, align 8
  %137 = getelementptr inbounds %struct.jpeg_component_info, ptr %136, i32 0, i32 12
  %138 = load i32, ptr %137, align 8
  %139 = icmp ne i32 %138, 0
  br i1 %139, label %140, label %156

140:                                              ; preds = %97
  %141 = load ptr, ptr %3, align 8
  %142 = getelementptr inbounds %struct.huff_entropy_decoder, ptr %141, i32 0, i32 8
  %143 = load i32, ptr %5, align 4
  %144 = sext i32 %143 to i64
  %145 = getelementptr inbounds [10 x i32], ptr %142, i64 0, i64 %144
  store i32 1, ptr %145, align 4
  %146 = load ptr, ptr %9, align 8
  %147 = getelementptr inbounds %struct.jpeg_component_info, ptr %146, i32 0, i32 9
  %148 = load i32, ptr %147, align 4
  %149 = icmp sgt i32 %148, 1
  %150 = zext i1 %149 to i32
  %151 = load ptr, ptr %3, align 8
  %152 = getelementptr inbounds %struct.huff_entropy_decoder, ptr %151, i32 0, i32 9
  %153 = load i32, ptr %5, align 4
  %154 = sext i32 %153 to i64
  %155 = getelementptr inbounds [10 x i32], ptr %152, i64 0, i64 %154
  store i32 %150, ptr %155, align 4
  br label %167

156:                                              ; preds = %97
  %157 = load ptr, ptr %3, align 8
  %158 = getelementptr inbounds %struct.huff_entropy_decoder, ptr %157, i32 0, i32 9
  %159 = load i32, ptr %5, align 4
  %160 = sext i32 %159 to i64
  %161 = getelementptr inbounds [10 x i32], ptr %158, i64 0, i64 %160
  store i32 0, ptr %161, align 4
  %162 = load ptr, ptr %3, align 8
  %163 = getelementptr inbounds %struct.huff_entropy_decoder, ptr %162, i32 0, i32 8
  %164 = load i32, ptr %5, align 4
  %165 = sext i32 %164 to i64
  %166 = getelementptr inbounds [10 x i32], ptr %163, i64 0, i64 %165
  store i32 0, ptr %166, align 4
  br label %167

167:                                              ; preds = %156, %140
  br label %168

168:                                              ; preds = %167
  %169 = load i32, ptr %5, align 4
  %170 = add nsw i32 %169, 1
  store i32 %170, ptr %5, align 4
  br label %91, !llvm.loop !20

171:                                              ; preds = %91
  %172 = load ptr, ptr %3, align 8
  %173 = getelementptr inbounds %struct.huff_entropy_decoder, ptr %172, i32 0, i32 1
  %174 = getelementptr inbounds %struct.bitread_perm_state, ptr %173, i32 0, i32 1
  store i32 0, ptr %174, align 8
  %175 = load ptr, ptr %3, align 8
  %176 = getelementptr inbounds %struct.huff_entropy_decoder, ptr %175, i32 0, i32 1
  %177 = getelementptr inbounds %struct.bitread_perm_state, ptr %176, i32 0, i32 0
  store i64 0, ptr %177, align 8
  %178 = load ptr, ptr %3, align 8
  %179 = getelementptr inbounds %struct.huff_entropy_decoder, ptr %178, i32 0, i32 0
  %180 = getelementptr inbounds %struct.jpeg_entropy_decoder, ptr %179, i32 0, i32 4
  store i32 0, ptr %180, align 8
  %181 = load ptr, ptr %2, align 8
  %182 = getelementptr inbounds %struct.jpeg_decompress_struct, ptr %181, i32 0, i32 50
  %183 = load i32, ptr %182, align 8
  %184 = load ptr, ptr %3, align 8
  %185 = getelementptr inbounds %struct.huff_entropy_decoder, ptr %184, i32 0, i32 3
  store i32 %183, ptr %185, align 8
  ret void
}