; Function Attrs: nounwind uwtable
define internal void @start_pass_huff_decoder(ptr noundef %0) #0 {
  %2 = getelementptr inbounds i8, ptr %0, i64 592
  %3 = load ptr, ptr %2, align 8
  %4 = getelementptr inbounds i8, ptr %0, i64 524
  %5 = load i32, ptr %4, align 4
  %.not = icmp eq i32 %5, 0
  br i1 %.not, label %6, label %15

6:                                                ; preds = %1
  %7 = getelementptr inbounds i8, ptr %0, i64 528
  %8 = load i32, ptr %7, align 8
  %.not57 = icmp eq i32 %8, 63
  br i1 %.not57, label %9, label %15

9:                                                ; preds = %6
  %10 = getelementptr inbounds i8, ptr %0, i64 532
  %11 = load i32, ptr %10, align 4
  %.not58 = icmp eq i32 %11, 0
  br i1 %.not58, label %12, label %15

12:                                               ; preds = %9
  %13 = getelementptr inbounds i8, ptr %0, i64 536
  %14 = load i32, ptr %13, align 8
  %.not59 = icmp eq i32 %14, 0
  br i1 %.not59, label %21, label %15

15:                                               ; preds = %12, %9, %6, %1
  %16 = load ptr, ptr %0, align 8
  %17 = getelementptr inbounds i8, ptr %16, i64 40
  store i32 122, ptr %17, align 8
  %18 = load ptr, ptr %0, align 8
  %19 = getelementptr inbounds i8, ptr %18, i64 8
  %20 = load ptr, ptr %19, align 8
  tail call void %20(ptr noundef nonnull %0, i32 noundef -1) #5
  br label %21

21:                                               ; preds = %15, %12
  %22 = getelementptr inbounds i8, ptr %0, i64 432
  %23 = load i32, ptr %22, align 8
  %24 = icmp sgt i32 %23, 0
  br i1 %24, label %.lr.ph, label %.preheader

.lr.ph:                                           ; preds = %21
  %25 = getelementptr inbounds i8, ptr %0, i64 440
  %26 = getelementptr inbounds i8, ptr %3, i64 80
  %27 = getelementptr inbounds i8, ptr %3, i64 112
  %28 = getelementptr inbounds i8, ptr %3, i64 56
  br label %40

.preheader:                                       ; preds = %40, %21
  %29 = getelementptr inbounds i8, ptr %0, i64 480
  %30 = load i32, ptr %29, align 8
  %31 = icmp sgt i32 %30, 0
  br i1 %31, label %.lr.ph63, label %._crit_edge

.lr.ph63:                                         ; preds = %.preheader
  %32 = getelementptr inbounds i8, ptr %0, i64 484
  %33 = getelementptr inbounds i8, ptr %0, i64 440
  %34 = getelementptr inbounds i8, ptr %3, i64 80
  %35 = getelementptr inbounds i8, ptr %3, i64 144
  %36 = getelementptr inbounds i8, ptr %3, i64 112
  %37 = getelementptr inbounds i8, ptr %3, i64 224
  %38 = getelementptr inbounds i8, ptr %3, i64 304
  %39 = getelementptr inbounds i8, ptr %3, i64 344
  br label %55

40:                                               ; preds = %.lr.ph, %40
  %indvars.iv = phi i64 [ 0, %.lr.ph ], [ %indvars.iv.next, %40 ]
  %41 = getelementptr inbounds [4 x ptr], ptr %25, i64 0, i64 %indvars.iv
  %42 = load ptr, ptr %41, align 8
  %43 = getelementptr inbounds i8, ptr %42, i64 20
  %44 = load i32, ptr %43, align 4
  %45 = getelementptr inbounds i8, ptr %42, i64 24
  %46 = load i32, ptr %45, align 8
  %47 = sext i32 %44 to i64
  %48 = getelementptr inbounds ptr, ptr %26, i64 %47
  tail call void @jpeg_make_d_derived_tbl(ptr noundef nonnull %0, i32 noundef 1, i32 noundef %44, ptr noundef nonnull %48)
  %49 = sext i32 %46 to i64
  %50 = getelementptr inbounds ptr, ptr %27, i64 %49
  tail call void @jpeg_make_d_derived_tbl(ptr noundef nonnull %0, i32 noundef 0, i32 noundef %46, ptr noundef nonnull %50)
  %51 = getelementptr inbounds [4 x i32], ptr %28, i64 0, i64 %indvars.iv
  store i32 0, ptr %51, align 4
  %indvars.iv.next = add nuw nsw i64 %indvars.iv, 1
  %52 = load i32, ptr %22, align 8
  %53 = sext i32 %52 to i64
  %54 = icmp slt i64 %indvars.iv.next, %53
  br i1 %54, label %40, label %.preheader, !llvm.loop !17

55:                                               ; preds = %.lr.ph63, %83
  %indvars.iv65 = phi i64 [ 0, %.lr.ph63 ], [ %indvars.iv.next66, %83 ]
  %56 = getelementptr inbounds [10 x i32], ptr %32, i64 0, i64 %indvars.iv65
  %57 = load i32, ptr %56, align 4
  %58 = sext i32 %57 to i64
  %59 = getelementptr inbounds [4 x ptr], ptr %33, i64 0, i64 %58
  %60 = load ptr, ptr %59, align 8
  %61 = getelementptr inbounds i8, ptr %60, i64 20
  %62 = load i32, ptr %61, align 4
  %63 = sext i32 %62 to i64
  %64 = getelementptr inbounds [4 x ptr], ptr %34, i64 0, i64 %63
  %65 = load ptr, ptr %64, align 8
  %66 = getelementptr inbounds [10 x ptr], ptr %35, i64 0, i64 %indvars.iv65
  store ptr %65, ptr %66, align 8
  %67 = getelementptr inbounds i8, ptr %60, i64 24
  %68 = load i32, ptr %67, align 8
  %69 = sext i32 %68 to i64
  %70 = getelementptr inbounds [4 x ptr], ptr %36, i64 0, i64 %69
  %71 = load ptr, ptr %70, align 8
  %72 = getelementptr inbounds [10 x ptr], ptr %37, i64 0, i64 %indvars.iv65
  store ptr %71, ptr %72, align 8
  %73 = getelementptr inbounds i8, ptr %60, i64 48
  %74 = load i32, ptr %73, align 8
  %.not60 = icmp eq i32 %74, 0
  br i1 %.not60, label %81, label %75

75:                                               ; preds = %55
  %76 = getelementptr inbounds [10 x i32], ptr %38, i64 0, i64 %indvars.iv65
  store i32 1, ptr %76, align 4
  %77 = getelementptr inbounds i8, ptr %60, i64 36
  %78 = load i32, ptr %77, align 4
  %79 = icmp sgt i32 %78, 1
  %80 = zext i1 %79 to i32
  br label %83

81:                                               ; preds = %55
  %82 = getelementptr inbounds [10 x i32], ptr %39, i64 0, i64 %indvars.iv65
  store i32 0, ptr %82, align 4
  br label %83

83:                                               ; preds = %75, %81
  %84 = phi i64 [ 344, %75 ], [ 304, %81 ]
  %.sink = phi i32 [ %80, %75 ], [ 0, %81 ]
  %85 = getelementptr inbounds i8, ptr %3, i64 %84
  %86 = getelementptr inbounds [10 x i32], ptr %85, i64 0, i64 %indvars.iv65
  store i32 %.sink, ptr %86, align 4
  %indvars.iv.next66 = add nuw nsw i64 %indvars.iv65, 1
  %87 = load i32, ptr %29, align 8
  %88 = sext i32 %87 to i64
  %89 = icmp slt i64 %indvars.iv.next66, %88
  br i1 %89, label %55, label %._crit_edge, !llvm.loop !18

._crit_edge:                                      ; preds = %83, %.preheader
  %90 = getelementptr inbounds i8, ptr %3, i64 40
  %91 = getelementptr inbounds i8, ptr %3, i64 48
  store i32 0, ptr %91, align 8
  store i64 0, ptr %90, align 8
  %92 = getelementptr inbounds i8, ptr %3, i64 32
  store i32 0, ptr %92, align 8
  %93 = getelementptr inbounds i8, ptr %0, i64 368
  %94 = load i32, ptr %93, align 8
  %95 = getelementptr inbounds i8, ptr %3, i64 72
  store i32 %94, ptr %95, align 8
  ret void
}